; Function Attrs: nounwind uwtable
define internal range(i32 0, 2) i32 @_list_find_cred_state(ptr noundef %0, ptr noundef readonly captures(none) %1) #0 {
  %3 = load i64, ptr %0, align 8
  %4 = getelementptr inbounds nuw i8, ptr %1, i64 88
  %5 = load i64, ptr %4, align 8
  %.not = icmp eq i64 %3, %5
  br i1 %.not, label %6, label %12

6:                                                ; preds = %2
  %7 = getelementptr inbounds nuw i8, ptr %0, i64 16
  %8 = getelementptr inbounds nuw i8, ptr %1, i64 80
  %9 = load ptr, ptr %8, align 8
  %10 = tail call zeroext i1 @verify_step_id(ptr noundef nonnull %7, ptr noundef %9) #10
  %11 = zext i1 %10 to i32
  br label %12

12:                                               ; preds = %2, %6
  %.0 = phi i32 [ %11, %6 ], [ 0, %2 ]
  ret i32 %.0
}